; Function Attrs: mustprogress uwtable
define internal void @_ZN11opencv_test12_GLOBAL__N_150gtest_Size_MatType_FlipCode_flip_EvalGenerateName_B5cxx11ERKN7testing13TestParamInfoISt5tupleIJN2cv5Size_IiEEN4perf7MatTypeENS0_12_GLOBAL__N_18FlipCodeEEEEE(ptr dead_on_unwind noalias writable sret(%"class.std::__cxx11::basic_string") align 8 %0, ptr noundef nonnull readonly align 1 captures(none) %1) #4 personality ptr @__gxx_personality_v0 {
  %3 = alloca %"class.testing::Message", align 8
  call void @llvm.lifetime.start.p0(i64 8, ptr nonnull %3) #28, !noalias !103
  call void @_ZN7testing7MessageC1Ev(ptr noundef nonnull align 8 dereferenceable(8) %3), !noalias !103
  %4 = getelementptr inbounds nuw i8, ptr %1, i64 16
  %5 = load ptr, ptr %3, align 8, !tbaa !106, !noalias !103
  %6 = getelementptr inbounds nuw i8, ptr %5, i64 16
  %7 = load i64, ptr %4, align 8, !tbaa !21, !noalias !103
  %8 = invoke noundef nonnull align 8 dereferenceable(8) ptr @_ZNSo9_M_insertImEERSoT_(ptr noundef nonnull align 8 dereferenceable(8) %6, i64 noundef %7)
          to label %_ZN7testing7MessagelsImEERS0_RKT_.exit.i unwind label %23, !noalias !103

_ZN7testing7MessagelsImEERS0_RKT_.exit.i:         ; preds = %2
  invoke void @_ZNK7testing7Message9GetStringB5cxx11Ev(ptr dead_on_unwind writable sret(%"class.std::__cxx11::basic_string") align 8 %0, ptr noundef nonnull align 8 dereferenceable(8) %3)
          to label %9 unwind label %23

9:                                                ; preds = %_ZN7testing7MessagelsImEERS0_RKT_.exit.i
  %10 = load ptr, ptr %3, align 8, !tbaa !106, !noalias !103
  %.not.i.i.i.i = icmp eq ptr %10, null
  br i1 %.not.i.i.i.i, label %_ZN7testing8internal16DefaultParamNameISt5tupleIJN2cv5Size_IiEEN4perf7MatTypeEN11opencv_test12_GLOBAL__N_112_GLOBAL__N_18FlipCodeEEEEENSt7__cxx1112basic_stringIcSt11char_traitsIcESaIcEEERKNS_13TestParamInfoIT_EE.exit, label %11

11:                                               ; preds = %9
  %12 = invoke noundef zeroext i1 @_ZN7testing8internal6IsTrueEb(i1 noundef zeroext true)
          to label %.noexc.i.i.i unwind label %20

.noexc.i.i.i:                                     ; preds = %11
  br i1 %12, label %13, label %_ZN7testing8internal16DefaultParamNameISt5tupleIJN2cv5Size_IiEEN4perf7MatTypeEN11opencv_test12_GLOBAL__N_112_GLOBAL__N_18FlipCodeEEEEENSt7__cxx1112basic_stringIcSt11char_traitsIcESaIcEEERKNS_13TestParamInfoIT_EE.exit

13:                                               ; preds = %.noexc.i.i.i
  %14 = load ptr, ptr %3, align 8, !tbaa !106, !noalias !103
  %15 = icmp eq ptr %14, null
  br i1 %15, label %_ZN7testing8internal16DefaultParamNameISt5tupleIJN2cv5Size_IiEEN4perf7MatTypeEN11opencv_test12_GLOBAL__N_112_GLOBAL__N_18FlipCodeEEEEENSt7__cxx1112basic_stringIcSt11char_traitsIcESaIcEEERKNS_13TestParamInfoIT_EE.exit, label %16

16:                                               ; preds = %13
  %17 = load ptr, ptr %14, align 8, !tbaa !12
  %18 = getelementptr inbounds nuw i8, ptr %17, i64 8
  %19 = load ptr, ptr %18, align 8
  call void %19(ptr noundef nonnull align 8 dereferenceable(128) %14) #28
  br label %_ZN7testing8internal16DefaultParamNameISt5tupleIJN2cv5Size_IiEEN4perf7MatTypeEN11opencv_test12_GLOBAL__N_112_GLOBAL__N_18FlipCodeEEEEENSt7__cxx1112basic_stringIcSt11char_traitsIcESaIcEEERKNS_13TestParamInfoIT_EE.exit

20:                                               ; preds = %11
  %21 = landingpad { ptr, i32 }
          catch ptr null
  %22 = extractvalue { ptr, i32 } %21, 0
  call void @__clang_call_terminate(ptr %22) #30
  unreachable

23:                                               ; preds = %_ZN7testing7MessagelsImEERS0_RKT_.exit.i, %2
  %24 = landingpad { ptr, i32 }
          cleanup
  call void @_ZN7testing7MessageD2Ev(ptr noundef nonnull align 8 dereferenceable(8) %3) #28
  call void @llvm.lifetime.end.p0(i64 8, ptr nonnull %3) #28, !noalias !103
  resume { ptr, i32 } %24

_ZN7testing8internal16DefaultParamNameISt5tupleIJN2cv5Size_IiEEN4perf7MatTypeEN11opencv_test12_GLOBAL__N_112_GLOBAL__N_18FlipCodeEEEEENSt7__cxx1112basic_stringIcSt11char_traitsIcESaIcEEERKNS_13TestParamInfoIT_EE.exit: ; preds = %9, %.noexc.i.i.i, %13, %16
  call void @llvm.lifetime.end.p0(i64 8, ptr nonnull %3) #28, !noalias !103
  ret void
}